target datalayout = "e-m:e-p270:32:32-p271:32:32-p272:64:64-i64:64-i128:128-f80:128-n8:16:32:64-S128"
target triple = "x86_64-pc-linux-gnu"

%struct.b2World = type { %struct.b2ArenaAllocator, %struct.b2BroadPhase, %struct.b2ConstraintGraph, %struct.b2IdPool, %struct.b2BodyArray, %struct.b2IdPool, %struct.b2SolverSetArray, %struct.b2IdPool, %struct.b2JointArray, %struct.b2IdPool, %struct.b2ContactArray, %struct.b2IdPool, %struct.b2IslandArray, %struct.b2IdPool, %struct.b2IdPool, %struct.b2ShapeArray, %struct.b2ChainShapeArray, %struct.b2SensorArray, %struct.b2TaskContextArray, %struct.b2SensorTaskContextArray, %struct.b2BodyMoveEventArray, %struct.b2SensorBeginTouchEventArray, %struct.b2ContactBeginTouchEventArray, [2 x %struct.b2SensorEndTouchEventArray], [2 x %struct.b2ContactEndTouchEventArray], i32, %struct.b2ContactHitEventArray, %struct.b2BitSet, %struct.b2BitSet, %struct.b2BitSet, i64, i32, %struct.b2Vec2, float, float, float, float, float, float, float, float, ptr, ptr, i16, %struct.b2Profile, ptr, ptr, ptr, ptr, i32, ptr, ptr, ptr, ptr, ptr, float, i32, i32, i16, i8, i8, i8, i8, i8, i8 }
%struct.b2ArenaAllocator = type { ptr, i32, i32, i32, i32, %struct.b2ArenaEntryArray }
%struct.b2ArenaEntryArray = type { ptr, i32, i32 }
%struct.b2BroadPhase = type { [3 x %struct.b2DynamicTree], i32, %struct.b2HashSet, %struct.b2IntArray, ptr, ptr, i32, %struct.b2AtomicInt, %struct.b2HashSet }
%struct.b2DynamicTree = type { ptr, i32, i32, i32, i32, i32, ptr, ptr, ptr, ptr, i32 }
%struct.b2IntArray = type { ptr, i32, i32 }
%struct.b2AtomicInt = type { i32 }
%struct.b2HashSet = type { ptr, i32, i32 }
%struct.b2ConstraintGraph = type { [12 x %struct.b2GraphColor] }
%struct.b2GraphColor = type { %struct.b2BitSet, %struct.b2ContactSimArray, %struct.b2JointSimArray, %union.anon }
%struct.b2ContactSimArray = type { ptr, i32, i32 }
%struct.b2JointSimArray = type { ptr, i32, i32 }
%union.anon = type { ptr }
%struct.b2BodyArray = type { ptr, i32, i32 }
%struct.b2SolverSetArray = type { ptr, i32, i32 }
%struct.b2JointArray = type { ptr, i32, i32 }
%struct.b2ContactArray = type { ptr, i32, i32 }
%struct.b2IslandArray = type { ptr, i32, i32 }
%struct.b2IdPool = type { %struct.b2IntArray, i32 }
%struct.b2ShapeArray = type { ptr, i32, i32 }
%struct.b2ChainShapeArray = type { ptr, i32, i32 }
%struct.b2SensorArray = type { ptr, i32, i32 }
%struct.b2TaskContextArray = type { ptr, i32, i32 }
%struct.b2SensorTaskContextArray = type { ptr, i32, i32 }
%struct.b2BodyMoveEventArray = type { ptr, i32, i32 }
%struct.b2SensorBeginTouchEventArray = type { ptr, i32, i32 }
%struct.b2ContactBeginTouchEventArray = type { ptr, i32, i32 }
%struct.b2SensorEndTouchEventArray = type { ptr, i32, i32 }
%struct.b2ContactEndTouchEventArray = type { ptr, i32, i32 }
%struct.b2ContactHitEventArray = type { ptr, i32, i32 }
%struct.b2BitSet = type { ptr, i32, i32 }
%struct.b2Vec2 = type { float, float }
%struct.b2Profile = type { float, float, float, float, float, float, float, float, float, float, float, float, float, float, float, float, float, float, float, float, float, float }
%struct.b2Transform = type { %struct.b2Vec2, %struct.b2Rot }
%struct.b2Rot = type { float, float }
%struct.b2WorldId = type { i16, i16 }
%struct.b2AABB = type { %struct.b2Vec2, %struct.b2Vec2 }
%struct.b2Polygon = type { [8 x %struct.b2Vec2], [8 x %struct.b2Vec2], %struct.b2Vec2, float, i32 }
%struct.b2TreeStats = type { i32, i32 }
%struct.b2QueryFilter = type { i64, i64 }
%struct.WorldOverlapContext = type { ptr, ptr, %struct.b2QueryFilter, %struct.b2ShapeProxy, %struct.b2Transform, ptr }
%struct.b2ShapeProxy = type { [8 x %struct.b2Vec2], i32, float }

@b2_worlds = hidden global [128 x %struct.b2World] zeroinitializer, align 16

; Function Attrs: nounwind uwtable
define hidden ptr @b2GetWorldFromId(i32 %0) #0 {
  %2 = alloca %struct.b2WorldId, align 2
  %3 = alloca ptr, align 8
  store i32 %0, ptr %2, align 2
  call void @llvm.lifetime.start.p0(i64 8, ptr %3) #10
  %4 = getelementptr inbounds nuw %struct.b2WorldId, ptr %2, i32 0, i32 0
  %5 = load i16, ptr %4, align 2, !tbaa !44
  %6 = zext i16 %5 to i32
  %7 = sub nsw i32 %6, 1
  %8 = sext i32 %7 to i64
  %9 = getelementptr inbounds %struct.b2World, ptr @b2_worlds, i64 %8
  store ptr %9, ptr %3, align 8, !tbaa !47
  %10 = load ptr, ptr %3, align 8, !tbaa !47
  call void @llvm.lifetime.end.p0(i64 8, ptr %3) #10
  ret ptr %10
}

; Function Attrs: nounwind uwtable
define i64 @b2World_OverlapPolygon(i32 %0, ptr noundef %1, <2 x float> %2, <2 x float> %3, i64 %4, i64 %5, ptr noundef %6, ptr noundef %7) #6 {
  %9 = alloca %struct.b2TreeStats, align 4
  %10 = alloca %struct.b2WorldId, align 2
  %11 = alloca %struct.b2Transform, align 4
  %12 = alloca %struct.b2QueryFilter, align 8
  %13 = alloca ptr, align 8
  %14 = alloca ptr, align 8
  %15 = alloca ptr, align 8
  %16 = alloca ptr, align 8
  %17 = alloca i32, align 4
  %18 = alloca %struct.b2AABB, align 4
  %19 = alloca %struct.WorldOverlapContext, align 8
  %20 = alloca i32, align 4
  %21 = alloca %struct.b2TreeStats, align 4
  store i32 %0, ptr %10, align 2
  %22 = getelementptr inbounds nuw { <2 x float>, <2 x float> }, ptr %11, i32 0, i32 0
  store <2 x float> %2, ptr %22, align 4
  %23 = getelementptr inbounds nuw { <2 x float>, <2 x float> }, ptr %11, i32 0, i32 1
  store <2 x float> %3, ptr %23, align 4
  %24 = getelementptr inbounds nuw { i64, i64 }, ptr %12, i32 0, i32 0
  store i64 %4, ptr %24, align 8
  %25 = getelementptr inbounds nuw { i64, i64 }, ptr %12, i32 0, i32 1
  store i64 %5, ptr %25, align 8
  store ptr %1, ptr %13, align 8, !tbaa !406
  store ptr %6, ptr %14, align 8, !tbaa !12
  store ptr %7, ptr %15, align 8, !tbaa !12
  call void @llvm.memset.p0.i64(ptr align 4 %9, i8 0, i64 8, i1 false)
  call void @llvm.lifetime.start.p0(i64 8, ptr %16) #10
  %26 = load i32, ptr %10, align 2
  %27 = call ptr @b2GetWorldFromId(i32 %26)
  store ptr %27, ptr %16, align 8, !tbaa !47
  %28 = load ptr, ptr %16, align 8, !tbaa !47
  %29 = getelementptr inbounds nuw %struct.b2World, ptr %28, i32 0, i32 60
  %30 = load i8, ptr %29, align 1, !tbaa !49, !range !90, !noundef !91
  %31 = trunc i8 %30 to i1
  br i1 %31, label %32, label %33

32:                                               ; preds = %8
  store i32 1, ptr %17, align 4
  br label %95

33:                                               ; preds = %8
  call void @llvm.lifetime.start.p0(i64 16, ptr %18) #10
  %34 = load ptr, ptr %13, align 8, !tbaa !406
  %35 = getelementptr inbounds nuw { <2 x float>, <2 x float> }, ptr %11, i32 0, i32 0
  %36 = load <2 x float>, ptr %35, align 4
  %37 = getelementptr inbounds nuw { <2 x float>, <2 x float> }, ptr %11, i32 0, i32 1
  %38 = load <2 x float>, ptr %37, align 4
  %39 = call { <2 x float>, <2 x float> } @b2ComputePolygonAABB(ptr noundef %34, <2 x float> %36, <2 x float> %38)
  %40 = getelementptr inbounds nuw { <2 x float>, <2 x float> }, ptr %18, i32 0, i32 0
  %41 = extractvalue { <2 x float>, <2 x float> } %39, 0
  store <2 x float> %41, ptr %40, align 4
  %42 = getelementptr inbounds nuw { <2 x float>, <2 x float> }, ptr %18, i32 0, i32 1
  %43 = extractvalue { <2 x float>, <2 x float> } %39, 1
  store <2 x float> %43, ptr %42, align 4
  call void @llvm.lifetime.start.p0(i64 128, ptr %19) #10
  %44 = getelementptr inbounds nuw %struct.WorldOverlapContext, ptr %19, i32 0, i32 0
  %45 = load ptr, ptr %16, align 8, !tbaa !47
  store ptr %45, ptr %44, align 8, !tbaa !519
  %46 = getelementptr inbounds nuw %struct.WorldOverlapContext, ptr %19, i32 0, i32 1
  %47 = load ptr, ptr %14, align 8, !tbaa !12
  store ptr %47, ptr %46, align 8, !tbaa !522
  %48 = getelementptr inbounds nuw %struct.WorldOverlapContext, ptr %19, i32 0, i32 2
  call void @llvm.memcpy.p0.p0.i64(ptr align 8 %48, ptr align 8 %12, i64 16, i1 false), !tbaa.struct !506
  %49 = getelementptr inbounds nuw %struct.WorldOverlapContext, ptr %19, i32 0, i32 3
  %50 = load ptr, ptr %13, align 8, !tbaa !406
  %51 = getelementptr inbounds nuw %struct.b2Polygon, ptr %50, i32 0, i32 0
  %52 = getelementptr inbounds [8 x %struct.b2Vec2], ptr %51, i64 0, i64 0
  %53 = load ptr, ptr %13, align 8, !tbaa !406
  %54 = getelementptr inbounds nuw %struct.b2Polygon, ptr %53, i32 0, i32 4
  %55 = load i32, ptr %54, align 4, !tbaa !409
  %56 = load ptr, ptr %13, align 8, !tbaa !406
  %57 = getelementptr inbounds nuw %struct.b2Polygon, ptr %56, i32 0, i32 3
  %58 = load float, ptr %57, align 4, !tbaa !411
  call void @b2MakeProxy(ptr dead_on_unwind writable sret(%struct.b2ShapeProxy) align 4 %49, ptr noundef %52, i32 noundef %55, float noundef %58)
  %59 = getelementptr inbounds nuw %struct.WorldOverlapContext, ptr %19, i32 0, i32 4
  call void @llvm.memcpy.p0.p0.i64(ptr align 8 %59, ptr align 4 %11, i64 16, i1 false), !tbaa.struct !316
  %60 = getelementptr inbounds nuw %struct.WorldOverlapContext, ptr %19, i32 0, i32 5
  %61 = load ptr, ptr %15, align 8, !tbaa !12
  store ptr %61, ptr %60, align 8, !tbaa !523
  call void @llvm.lifetime.start.p0(i64 4, ptr %20) #10
  store i32 0, ptr %20, align 4, !tbaa !3
  br label %62

62:                                               ; preds = %91, %33
  %63 = load i32, ptr %20, align 4, !tbaa !3
  %64 = icmp slt i32 %63, 3
  br i1 %64, label %66, label %65

65:                                               ; preds = %62
  store i32 2, ptr %17, align 4
  call void @llvm.lifetime.end.p0(i64 4, ptr %20) #10
  br label %94

66:                                               ; preds = %62
  call void @llvm.lifetime.start.p0(i64 8, ptr %21) #10
  %67 = load ptr, ptr %16, align 8, !tbaa !47
  %68 = getelementptr inbounds nuw %struct.b2World, ptr %67, i32 0, i32 1
  %69 = getelementptr inbounds nuw %struct.b2BroadPhase, ptr %68, i32 0, i32 0
  %70 = getelementptr inbounds [3 x %struct.b2DynamicTree], ptr %69, i64 0, i64 0
  %71 = load i32, ptr %20, align 4, !tbaa !3
  %72 = sext i32 %71 to i64
  %73 = getelementptr inbounds %struct.b2DynamicTree, ptr %70, i64 %72
  %74 = getelementptr inbounds nuw %struct.b2QueryFilter, ptr %12, i32 0, i32 1
  %75 = load i64, ptr %74, align 8, !tbaa !508
  %76 = getelementptr inbounds nuw { <2 x float>, <2 x float> }, ptr %18, i32 0, i32 0
  %77 = load <2 x float>, ptr %76, align 4
  %78 = getelementptr inbounds nuw { <2 x float>, <2 x float> }, ptr %18, i32 0, i32 1
  %79 = load <2 x float>, ptr %78, align 4
  %80 = call i64 @b2DynamicTree_Query(ptr noundef %73, <2 x float> %77, <2 x float> %79, i64 noundef %75, ptr noundef @TreeOverlapCallback, ptr noundef %19)
  store i64 %80, ptr %21, align 4
  %81 = getelementptr inbounds nuw %struct.b2TreeStats, ptr %21, i32 0, i32 0
  %82 = load i32, ptr %81, align 4, !tbaa !509
  %83 = getelementptr inbounds nuw %struct.b2TreeStats, ptr %9, i32 0, i32 0
  %84 = load i32, ptr %83, align 4, !tbaa !509
  %85 = add nsw i32 %84, %82
  store i32 %85, ptr %83, align 4, !tbaa !509
  %86 = getelementptr inbounds nuw %struct.b2TreeStats, ptr %21, i32 0, i32 1
  %87 = load i32, ptr %86, align 4, !tbaa !511
  %88 = getelementptr inbounds nuw %struct.b2TreeStats, ptr %9, i32 0, i32 1
  %89 = load i32, ptr %88, align 4, !tbaa !511
  %90 = add nsw i32 %89, %87
  store i32 %90, ptr %88, align 4, !tbaa !511
  call void @llvm.lifetime.end.p0(i64 8, ptr %21) #10
  br label %91

91:                                               ; preds = %66
  %92 = load i32, ptr %20, align 4, !tbaa !3
  %93 = add nsw i32 %92, 1
  store i32 %93, ptr %20, align 4, !tbaa !3
  br label %62, !llvm.loop !534

94:                                               ; preds = %65
  store i32 1, ptr %17, align 4
  call void @llvm.lifetime.end.p0(i64 128, ptr %19) #10
  call void @llvm.lifetime.end.p0(i64 16, ptr %18) #10
  br label %95

95:                                               ; preds = %94, %32
  call void @llvm.lifetime.end.p0(i64 8, ptr %16) #10
  %96 = load i64, ptr %9, align 4
  ret i64 %96
}